; ModuleID = '45/2383.c'
source_filename = "45/2383.c"
target datalayout = "e-m:e-p270:32:32-p271:32:32-p272:64:64-i64:64-f80:128-n8:16:32:64-S128"
target triple = "x86_64-pc-linux-gnu"

@.str = private unnamed_addr constant [5 x i8] c"%s%s\00", align 1
@.str.1 = private unnamed_addr constant [4 x i8] c"%d\0A\00", align 1

; Function Attrs: noinline nounwind uwtable
define dso_local i32 @main() #0 {
  %1 = alloca i32, align 4
  %2 = alloca i32, align 4
  %3 = alloca i32, align 4
  %4 = alloca i32, align 4
  %5 = alloca i32, align 4
  %6 = alloca i32, align 4
  %7 = alloca [51 x i8], align 16
  %8 = alloca [51 x i8], align 16
  store i32 0, i32* %1, align 4
  store i32 0, i32* %5, align 4
  store i32 0, i32* %6, align 4
  %9 = getelementptr inbounds [51 x i8], [51 x i8]* %7, i64 0, i64 0
  %10 = getelementptr inbounds [51 x i8], [51 x i8]* %8, i64 0, i64 0
  %11 = call i32 (i8*, ...) @__isoc99_scanf(i8* getelementptr inbounds ([5 x i8], [5 x i8]* @.str, i64 0, i64 0), i8* %9, i8* %10)
  store i32 0, i32* %2, align 4
  br label %12

12:                                               ; preds = %71, %0
  %13 = load i32, i32* %2, align 4
  %14 = sext i32 %13 to i64
  %15 = getelementptr inbounds [51 x i8], [51 x i8]* %8, i64 0, i64 %14
  %16 = load i8, i8* %15, align 1
  %17 = sext i8 %16 to i32
  %18 = icmp ne i32 %17, 0
  br i1 %18, label %19, label %74

19:                                               ; preds = %12
  %20 = load i32, i32* %2, align 4
  %21 = sext i32 %20 to i64
  %22 = getelementptr inbounds [51 x i8], [51 x i8]* %8, i64 0, i64 %21
  %23 = load i8, i8* %22, align 1
  %24 = sext i8 %23 to i32
  %25 = getelementptr inbounds [51 x i8], [51 x i8]* %7, i64 0, i64 0
  %26 = load i8, i8* %25, align 16
  %27 = sext i8 %26 to i32
  %28 = icmp eq i32 %24, %27
  br i1 %28, label %29, label %70

29:                                               ; preds = %19
  %30 = load i32, i32* %2, align 4
  store i32 %30, i32* %4, align 4
  store i32 0, i32* %3, align 4
  br label %31

31:                                               ; preds = %58, %29
  %32 = load i32, i32* %3, align 4
  %33 = sext i32 %32 to i64
  %34 = getelementptr inbounds [51 x i8], [51 x i8]* %7, i64 0, i64 %33
  %35 = load i8, i8* %34, align 1
  %36 = sext i8 %35 to i32
  %37 = icmp ne i32 %36, 0
  br i1 %37, label %38, label %61

38:                                               ; preds = %31
  %39 = load i32, i32* %2, align 4
  %40 = load i32, i32* %3, align 4
  %41 = add nsw i32 %39, %40
  %42 = sext i32 %41 to i64
  %43 = getelementptr inbounds [51 x i8], [51 x i8]* %8, i64 0, i64 %42
  %44 = load i8, i8* %43, align 1
  %45 = sext i8 %44 to i32
  %46 = load i32, i32* %3, align 4
  %47 = sext i32 %46 to i64
  %48 = getelementptr inbounds [51 x i8], [51 x i8]* %7, i64 0, i64 %47
  %49 = load i8, i8* %48, align 1
  %50 = sext i8 %49 to i32
  %51 = icmp eq i32 %45, %50
  br i1 %51, label %52, label %55

52:                                               ; preds = %38
  %53 = load i32, i32* %5, align 4
  %54 = add nsw i32 %53, 1
  store i32 %54, i32* %5, align 4
  br label %55

55:                                               ; preds = %52, %38
  %56 = load i32, i32* %6, align 4
  %57 = add nsw i32 %56, 1
  store i32 %57, i32* %6, align 4
  br label %58

58:                                               ; preds = %55
  %59 = load i32, i32* %3, align 4
  %60 = add nsw i32 %59, 1
  store i32 %60, i32* %3, align 4
  br label %31

61:                                               ; preds = %31
  %62 = load i32, i32* %6, align 4
  %63 = load i32, i32* %5, align 4
  %64 = icmp eq i32 %62, %63
  br i1 %64, label %65, label %68

65:                                               ; preds = %61
  %66 = load i32, i32* %4, align 4
  %67 = call i32 (i8*, ...) @printf(i8* getelementptr inbounds ([4 x i8], [4 x i8]* @.str.1, i64 0, i64 0), i32 %66)
  br label %74

68:                                               ; preds = %61
  store i32 0, i32* %6, align 4
  store i32 0, i32* %5, align 4
  br label %69

69:                                               ; preds = %68
  br label %70

70:                                               ; preds = %69, %19
  br label %71

71:                                               ; preds = %70
  %72 = load i32, i32* %2, align 4
  %73 = add nsw i32 %72, 1
  store i32 %73, i32* %2, align 4
  br label %12

74:                                               ; preds = %65, %12
  ret i32 0
}

declare dso_local i32 @__isoc99_scanf(i8*, ...) #1

declare dso_local i32 @printf(i8*, ...) #1


!llvm.module.flags = !{!0}
!llvm.ident = !{!1}

!0 = !{i32 1, !"wchar_size", i32 4}
!1 = !{!"clang version 10.0.0-4ubuntu1 "}
