; ModuleID = 'source-C-CXX/44/2383.c'
source_filename = "source-C-CXX/44/2383.c"
target datalayout = "e-m:e-p270:32:32-p271:32:32-p272:64:64-i64:64-f80:128-n8:16:32:64-S128"
target triple = "x86_64-pc-linux-gnu"

@.str = private unnamed_addr constant [5 x i8] c"%s%s\00", align 1
@.str.1 = private unnamed_addr constant [4 x i8] c"%d\0A\00", align 1

; Function Attrs: nofree nounwind sspstrong uwtable
define dso_local i32 @main() local_unnamed_addr #0 {
  %1 = alloca [51 x i8], align 16
  %2 = alloca [51 x i8], align 16
  %3 = getelementptr inbounds [51 x i8], [51 x i8]* %1, i64 0, i64 0
  call void @llvm.lifetime.start.p0i8(i64 51, i8* nonnull %3) #3
  %4 = getelementptr inbounds [51 x i8], [51 x i8]* %2, i64 0, i64 0
  call void @llvm.lifetime.start.p0i8(i64 51, i8* nonnull %4) #3
  %5 = call i32 (i8*, ...) @__isoc99_scanf(i8* getelementptr inbounds ([5 x i8], [5 x i8]* @.str, i64 0, i64 0), i8* nonnull %3, i8* nonnull %4)
  %6 = load i8, i8* %3, align 16
  %7 = load i8, i8* %4, align 16, !tbaa !5
  %8 = icmp eq i8 %7, 0
  br i1 %8, label %47, label %9

9:                                                ; preds = %0
  %10 = icmp eq i8 %6, 0
  br i1 %10, label %11, label %17

11:                                               ; preds = %9, %11
  %12 = phi i64 [ %13, %11 ], [ 0, %9 ]
  %13 = add nuw i64 %12, 1
  %14 = getelementptr inbounds [51 x i8], [51 x i8]* %2, i64 0, i64 %13
  %15 = load i8, i8* %14, align 1, !tbaa !5
  %16 = icmp eq i8 %15, 0
  br i1 %16, label %47, label %11, !llvm.loop !8

17:                                               ; preds = %9, %42
  %18 = phi i64 [ %43, %42 ], [ 0, %9 ]
  %19 = phi i8 [ %45, %42 ], [ %7, %9 ]
  %20 = icmp eq i8 %19, %6
  br i1 %20, label %21, label %42

21:                                               ; preds = %17, %21
  %22 = phi i64 [ %33, %21 ], [ 0, %17 ]
  %23 = phi i8 [ %35, %21 ], [ %6, %17 ]
  %24 = phi i32 [ %32, %21 ], [ 0, %17 ]
  %25 = phi i32 [ %31, %21 ], [ 0, %17 ]
  %26 = add nuw nsw i64 %22, %18
  %27 = getelementptr inbounds [51 x i8], [51 x i8]* %2, i64 0, i64 %26
  %28 = load i8, i8* %27, align 1, !tbaa !5
  %29 = icmp eq i8 %28, %23
  %30 = zext i1 %29 to i32
  %31 = add nuw nsw i32 %25, %30
  %32 = add nuw nsw i32 %24, 1
  %33 = add nuw nsw i64 %22, 1
  %34 = getelementptr inbounds [51 x i8], [51 x i8]* %1, i64 0, i64 %33
  %35 = load i8, i8* %34, align 1, !tbaa !5
  %36 = icmp eq i8 %35, 0
  br i1 %36, label %37, label %21, !llvm.loop !10

37:                                               ; preds = %21
  %38 = icmp eq i32 %32, %31
  br i1 %38, label %39, label %42

39:                                               ; preds = %37
  %40 = trunc i64 %18 to i32
  %41 = call i32 (i8*, ...) @printf(i8* nonnull dereferenceable(1) getelementptr inbounds ([4 x i8], [4 x i8]* @.str.1, i64 0, i64 0), i32 %40)
  br label %47

42:                                               ; preds = %37, %17
  %43 = add nuw i64 %18, 1
  %44 = getelementptr inbounds [51 x i8], [51 x i8]* %2, i64 0, i64 %43
  %45 = load i8, i8* %44, align 1, !tbaa !5
  %46 = icmp eq i8 %45, 0
  br i1 %46, label %47, label %17, !llvm.loop !8

47:                                               ; preds = %42, %11, %0, %39
  call void @llvm.lifetime.end.p0i8(i64 51, i8* nonnull %4) #3
  call void @llvm.lifetime.end.p0i8(i64 51, i8* nonnull %3) #3
  ret i32 0
}

; Function Attrs: argmemonly mustprogress nofree nosync nounwind willreturn
declare void @llvm.lifetime.start.p0i8(i64 immarg, i8* nocapture) #1

; Function Attrs: nofree nounwind
declare noundef i32 @__isoc99_scanf(i8* nocapture noundef readonly, ...) local_unnamed_addr #2

; Function Attrs: nofree nounwind
declare noundef i32 @printf(i8* nocapture noundef readonly, ...) local_unnamed_addr #2

; Function Attrs: argmemonly mustprogress nofree nosync nounwind willreturn
declare void @llvm.lifetime.end.p0i8(i64 immarg, i8* nocapture) #1


!llvm.module.flags = !{!0, !1, !2, !3}
!llvm.ident = !{!4}

!0 = !{i32 1, !"wchar_size", i32 4}
!1 = !{i32 7, !"PIC Level", i32 2}
!2 = !{i32 7, !"PIE Level", i32 2}
!3 = !{i32 7, !"uwtable", i32 1}
!4 = !{!"clang version 13.0.0"}
!5 = !{!6, !6, i64 0}
!6 = !{!"omnipotent char", !7, i64 0}
!7 = !{!"Simple C/C++ TBAA"}
!8 = distinct !{!8, !9}
!9 = !{!"llvm.loop.mustprogress"}
!10 = distinct !{!10, !9}
